target datalayout = "e-m:e-p270:32:32-p271:32:32-p272:64:64-i64:64-i128:128-f80:128-n8:16:32:64-S128"
target triple = "x86_64-pc-linux-gnu"

%struct.expert_field = type { i32, i32 }
%struct._packet_info = type { ptr, ptr, i32, i32, %struct.nstime_t, %struct.nstime_t, %struct.nstime_t, i8, ptr, ptr, ptr, ptr, %struct._address, %struct._address, %struct._address, %struct._address, %struct._address, %struct._address, i32, ptr, i8, [3 x i8], %struct.anon, i32, i32, i32, i32, ptr, i8, ptr, ptr, i16, i16, i32, i32, i16, i32, i32, ptr, ptr, ptr, i8, i8, i16, i16, i16, i32, i16, i16, ptr, ptr, ptr, ptr, ptr, i32, i32 }
%struct.nstime_t = type { i64, i32 }
%struct._address = type { i32, i32, ptr, ptr }
%struct.anon = type { i8, [3 x i8] }

@ei_nas_5gs_extraneous_data = internal global %struct.expert_field zeroinitializer, align 4
@.str.1672 = private unnamed_addr constant [13 x i8] c" - Requested\00", align 1
@.str.1720 = private unnamed_addr constant [23 x i8] c" - Requested QoS rules\00", align 1

; Function Attrs: null_pointer_is_valid sspstrong uwtable
define internal void @nas_5gs_n1_sm_info_from_ue(ptr noundef %0, ptr noundef %1, ptr noundef %2, i32 noundef %3, i32 noundef %4) #0 {
  %6 = alloca ptr, align 8
  %7 = alloca ptr, align 8
  %8 = alloca ptr, align 8
  %9 = alloca i32, align 4
  %10 = alloca i32, align 4
  %11 = alloca i32, align 4
  %12 = alloca i32, align 4
  %13 = alloca i32, align 4
  %14 = alloca i32, align 4
  store ptr %0, ptr %6, align 8
  store ptr %1, ptr %7, align 8
  store ptr %2, ptr %8, align 8
  store i32 %3, ptr %9, align 4
  store i32 %4, ptr %10, align 4
  call void @llvm.lifetime.start.p0(i64 4, ptr %11) #11
  call void @llvm.lifetime.start.p0(i64 4, ptr %12) #11
  call void @llvm.lifetime.start.p0(i64 4, ptr %13) #11
  %15 = load i32, ptr %9, align 4
  store i32 %15, ptr %11, align 4
  %16 = load i32, ptr %10, align 4
  store i32 %16, ptr %13, align 4
  %17 = load ptr, ptr %8, align 8
  %18 = getelementptr inbounds nuw %struct._packet_info, ptr %17, i32 0, i32 46
  store i32 0, ptr %18, align 8
  %19 = load i32, ptr %13, align 4
  %20 = icmp sle i32 %19, 0
  br i1 %20, label %21, label %22

21:                                               ; preds = %5
  store i32 1, ptr %14, align 4
  br label %269

22:                                               ; preds = %5
  %23 = load ptr, ptr %6, align 8
  %24 = load ptr, ptr %7, align 8
  %25 = load ptr, ptr %8, align 8
  %26 = load i32, ptr %11, align 4
  %27 = call zeroext i16 @elem_tv_short(ptr noundef %23, ptr noundef %24, ptr noundef %25, i8 noundef zeroext -112, i32 noundef 18, i32 noundef 10, i32 noundef %26, ptr noundef null)
  %28 = zext i16 %27 to i32
  store i32 %28, ptr %12, align 4
  %29 = icmp ugt i32 %28, 0
  br i1 %29, label %30, label %37

30:                                               ; preds = %22
  %31 = load i32, ptr %12, align 4
  %32 = load i32, ptr %11, align 4
  %33 = add i32 %32, %31
  store i32 %33, ptr %11, align 4
  %34 = load i32, ptr %12, align 4
  %35 = load i32, ptr %13, align 4
  %36 = sub i32 %35, %34
  store i32 %36, ptr %13, align 4
  br label %37

37:                                               ; preds = %30, %22
  %38 = load i32, ptr %13, align 4
  %39 = icmp sle i32 %38, 0
  br i1 %39, label %40, label %41

40:                                               ; preds = %37
  store i32 1, ptr %14, align 4
  br label %269

41:                                               ; preds = %37
  %42 = load ptr, ptr %6, align 8
  %43 = load ptr, ptr %7, align 8
  %44 = load ptr, ptr %8, align 8
  %45 = load i32, ptr %11, align 4
  %46 = call zeroext i16 @elem_tv_short(ptr noundef %42, ptr noundef %43, ptr noundef %44, i8 noundef zeroext -96, i32 noundef 18, i32 noundef 15, i32 noundef %45, ptr noundef null)
  %47 = zext i16 %46 to i32
  store i32 %47, ptr %12, align 4
  %48 = icmp ugt i32 %47, 0
  br i1 %48, label %49, label %56

49:                                               ; preds = %41
  %50 = load i32, ptr %12, align 4
  %51 = load i32, ptr %11, align 4
  %52 = add i32 %51, %50
  store i32 %52, ptr %11, align 4
  %53 = load i32, ptr %12, align 4
  %54 = load i32, ptr %13, align 4
  %55 = sub i32 %54, %53
  store i32 %55, ptr %13, align 4
  br label %56

56:                                               ; preds = %49, %41
  %57 = load i32, ptr %13, align 4
  %58 = icmp sle i32 %57, 0
  br i1 %58, label %59, label %60

59:                                               ; preds = %56
  store i32 1, ptr %14, align 4
  br label %269

60:                                               ; preds = %56
  %61 = load ptr, ptr %6, align 8
  %62 = load ptr, ptr %7, align 8
  %63 = load ptr, ptr %8, align 8
  %64 = load i32, ptr %11, align 4
  %65 = call zeroext i16 @elem_tv(ptr noundef %61, ptr noundef %62, ptr noundef %63, i8 noundef zeroext 85, i32 noundef 18, i32 noundef 8, i32 noundef %64, ptr noundef null)
  %66 = zext i16 %65 to i32
  store i32 %66, ptr %12, align 4
  %67 = icmp ugt i32 %66, 0
  br i1 %67, label %68, label %75

68:                                               ; preds = %60
  %69 = load i32, ptr %12, align 4
  %70 = load i32, ptr %11, align 4
  %71 = add i32 %70, %69
  store i32 %71, ptr %11, align 4
  %72 = load i32, ptr %12, align 4
  %73 = load i32, ptr %13, align 4
  %74 = sub i32 %73, %72
  store i32 %74, ptr %13, align 4
  br label %75

75:                                               ; preds = %68, %60
  %76 = load i32, ptr %13, align 4
  %77 = icmp sle i32 %76, 0
  br i1 %77, label %78, label %79

78:                                               ; preds = %75
  store i32 1, ptr %14, align 4
  br label %269

79:                                               ; preds = %75
  %80 = load ptr, ptr %6, align 8
  %81 = load ptr, ptr %7, align 8
  %82 = load ptr, ptr %8, align 8
  %83 = load i32, ptr %11, align 4
  %84 = call zeroext i16 @elem_tv(ptr noundef %80, ptr noundef %81, ptr noundef %82, i8 noundef zeroext 19, i32 noundef 18, i32 noundef 6, i32 noundef %83, ptr noundef null)
  %85 = zext i16 %84 to i32
  store i32 %85, ptr %12, align 4
  %86 = icmp ugt i32 %85, 0
  br i1 %86, label %87, label %94

87:                                               ; preds = %79
  %88 = load i32, ptr %12, align 4
  %89 = load i32, ptr %11, align 4
  %90 = add i32 %89, %88
  store i32 %90, ptr %11, align 4
  %91 = load i32, ptr %12, align 4
  %92 = load i32, ptr %13, align 4
  %93 = sub i32 %92, %91
  store i32 %93, ptr %13, align 4
  br label %94

94:                                               ; preds = %87, %79
  %95 = load i32, ptr %13, align 4
  %96 = icmp sle i32 %95, 0
  br i1 %96, label %97, label %98

97:                                               ; preds = %94
  store i32 1, ptr %14, align 4
  br label %269

98:                                               ; preds = %94
  %99 = load ptr, ptr %6, align 8
  %100 = load ptr, ptr %7, align 8
  %101 = load ptr, ptr %8, align 8
  %102 = load i32, ptr %11, align 4
  %103 = load i32, ptr %13, align 4
  %104 = call zeroext i16 @elem_tlv(ptr noundef %99, ptr noundef %100, ptr noundef %101, i8 noundef zeroext 57, i32 noundef 18, i32 noundef 14, i32 noundef %102, i32 noundef %103, ptr noundef null)
  %105 = zext i16 %104 to i32
  store i32 %105, ptr %12, align 4
  %106 = icmp ugt i32 %105, 0
  br i1 %106, label %107, label %114

107:                                              ; preds = %98
  %108 = load i32, ptr %12, align 4
  %109 = load i32, ptr %11, align 4
  %110 = add i32 %109, %108
  store i32 %110, ptr %11, align 4
  %111 = load i32, ptr %12, align 4
  %112 = load i32, ptr %13, align 4
  %113 = sub i32 %112, %111
  store i32 %113, ptr %13, align 4
  br label %114

114:                                              ; preds = %107, %98
  %115 = load i32, ptr %13, align 4
  %116 = icmp sle i32 %115, 0
  br i1 %116, label %117, label %118

117:                                              ; preds = %114
  store i32 1, ptr %14, align 4
  br label %269

118:                                              ; preds = %114
  %119 = load ptr, ptr %6, align 8
  %120 = load ptr, ptr %7, align 8
  %121 = load ptr, ptr %8, align 8
  %122 = load i32, ptr %11, align 4
  %123 = load i32, ptr %13, align 4
  %124 = call zeroext i16 @elem_tlv_e(ptr noundef %119, ptr noundef %120, ptr noundef %121, i8 noundef zeroext 123, i32 noundef 11, i32 noundef 28, i32 noundef %122, i32 noundef %123, ptr noundef null)
  %125 = zext i16 %124 to i32
  store i32 %125, ptr %12, align 4
  %126 = icmp ugt i32 %125, 0
  br i1 %126, label %127, label %134

127:                                              ; preds = %118
  %128 = load i32, ptr %12, align 4
  %129 = load i32, ptr %11, align 4
  %130 = add i32 %129, %128
  store i32 %130, ptr %11, align 4
  %131 = load i32, ptr %12, align 4
  %132 = load i32, ptr %13, align 4
  %133 = sub i32 %132, %131
  store i32 %133, ptr %13, align 4
  br label %134

134:                                              ; preds = %127, %118
  %135 = load i32, ptr %13, align 4
  %136 = icmp sle i32 %135, 0
  br i1 %136, label %137, label %138

137:                                              ; preds = %134
  store i32 1, ptr %14, align 4
  br label %269

138:                                              ; preds = %134
  %139 = load ptr, ptr %6, align 8
  %140 = load ptr, ptr %7, align 8
  %141 = load ptr, ptr %8, align 8
  %142 = load i32, ptr %11, align 4
  %143 = load i32, ptr %13, align 4
  %144 = call zeroext i16 @elem_tlv_e(ptr noundef %139, ptr noundef %140, ptr noundef %141, i8 noundef zeroext 120, i32 noundef 16, i32 noundef 3, i32 noundef %142, i32 noundef %143, ptr noundef null)
  %145 = zext i16 %144 to i32
  store i32 %145, ptr %12, align 4
  %146 = icmp ugt i32 %145, 0
  br i1 %146, label %147, label %154

147:                                              ; preds = %138
  %148 = load i32, ptr %12, align 4
  %149 = load i32, ptr %11, align 4
  %150 = add i32 %149, %148
  store i32 %150, ptr %11, align 4
  %151 = load i32, ptr %12, align 4
  %152 = load i32, ptr %13, align 4
  %153 = sub i32 %152, %151
  store i32 %153, ptr %13, align 4
  br label %154

154:                                              ; preds = %147, %138
  %155 = load i32, ptr %13, align 4
  %156 = icmp sle i32 %155, 0
  br i1 %156, label %157, label %158

157:                                              ; preds = %154
  store i32 1, ptr %14, align 4
  br label %269

158:                                              ; preds = %154
  %159 = load ptr, ptr %6, align 8
  %160 = load ptr, ptr %7, align 8
  %161 = load ptr, ptr %8, align 8
  %162 = load i32, ptr %11, align 4
  %163 = load i32, ptr %13, align 4
  %164 = call zeroext i16 @elem_tlv_e(ptr noundef %159, ptr noundef %160, ptr noundef %161, i8 noundef zeroext 122, i32 noundef 18, i32 noundef 12, i32 noundef %162, i32 noundef %163, ptr noundef @.str.1720)
  %165 = zext i16 %164 to i32
  store i32 %165, ptr %12, align 4
  %166 = icmp ugt i32 %165, 0
  br i1 %166, label %167, label %174

167:                                              ; preds = %158
  %168 = load i32, ptr %12, align 4
  %169 = load i32, ptr %11, align 4
  %170 = add i32 %169, %168
  store i32 %170, ptr %11, align 4
  %171 = load i32, ptr %12, align 4
  %172 = load i32, ptr %13, align 4
  %173 = sub i32 %172, %171
  store i32 %173, ptr %13, align 4
  br label %174

174:                                              ; preds = %167, %158
  %175 = load i32, ptr %13, align 4
  %176 = icmp sle i32 %175, 0
  br i1 %176, label %177, label %178

177:                                              ; preds = %174
  store i32 1, ptr %14, align 4
  br label %269

178:                                              ; preds = %174
  %179 = load ptr, ptr %6, align 8
  %180 = load ptr, ptr %7, align 8
  %181 = load ptr, ptr %8, align 8
  %182 = load i32, ptr %11, align 4
  %183 = load i32, ptr %13, align 4
  %184 = call zeroext i16 @elem_tlv_e(ptr noundef %179, ptr noundef %180, ptr noundef %181, i8 noundef zeroext 121, i32 noundef 18, i32 noundef 11, i32 noundef %182, i32 noundef %183, ptr noundef @.str.1672)
  %185 = zext i16 %184 to i32
  store i32 %185, ptr %12, align 4
  %186 = icmp ugt i32 %185, 0
  br i1 %186, label %187, label %194

187:                                              ; preds = %178
  %188 = load i32, ptr %12, align 4
  %189 = load i32, ptr %11, align 4
  %190 = add i32 %189, %188
  store i32 %190, ptr %11, align 4
  %191 = load i32, ptr %12, align 4
  %192 = load i32, ptr %13, align 4
  %193 = sub i32 %192, %191
  store i32 %193, ptr %13, align 4
  br label %194

194:                                              ; preds = %187, %178
  %195 = load i32, ptr %13, align 4
  %196 = icmp sle i32 %195, 0
  br i1 %196, label %197, label %198

197:                                              ; preds = %194
  store i32 1, ptr %14, align 4
  br label %269

198:                                              ; preds = %194
  %199 = load ptr, ptr %6, align 8
  %200 = load ptr, ptr %7, align 8
  %201 = load ptr, ptr %8, align 8
  %202 = load i32, ptr %11, align 4
  %203 = call zeroext i16 @elem_tv(ptr noundef %199, ptr noundef %200, ptr noundef %201, i8 noundef zeroext 89, i32 noundef 18, i32 noundef 1, i32 noundef %202, ptr noundef null)
  %204 = zext i16 %203 to i32
  store i32 %204, ptr %12, align 4
  %205 = icmp ugt i32 %204, 0
  br i1 %205, label %206, label %213

206:                                              ; preds = %198
  %207 = load i32, ptr %12, align 4
  %208 = load i32, ptr %11, align 4
  %209 = add i32 %208, %207
  store i32 %209, ptr %11, align 4
  %210 = load i32, ptr %12, align 4
  %211 = load i32, ptr %13, align 4
  %212 = sub i32 %211, %210
  store i32 %212, ptr %13, align 4
  br label %213

213:                                              ; preds = %206, %198
  %214 = load i32, ptr %13, align 4
  %215 = icmp sle i32 %214, 0
  br i1 %215, label %216, label %217

216:                                              ; preds = %213
  store i32 1, ptr %14, align 4
  br label %269

217:                                              ; preds = %213
  %218 = load ptr, ptr %6, align 8
  %219 = load ptr, ptr %7, align 8
  %220 = load ptr, ptr %8, align 8
  %221 = load i32, ptr %11, align 4
  %222 = load i32, ptr %13, align 4
  %223 = call zeroext i16 @elem_tlv(ptr noundef %218, ptr noundef %219, ptr noundef %220, i8 noundef zeroext 40, i32 noundef 18, i32 noundef 0, i32 noundef %221, i32 noundef %222, ptr noundef null)
  %224 = zext i16 %223 to i32
  store i32 %224, ptr %12, align 4
  %225 = icmp ugt i32 %224, 0
  br i1 %225, label %226, label %233

226:                                              ; preds = %217
  %227 = load i32, ptr %12, align 4
  %228 = load i32, ptr %11, align 4
  %229 = add i32 %228, %227
  store i32 %229, ptr %11, align 4
  %230 = load i32, ptr %12, align 4
  %231 = load i32, ptr %13, align 4
  %232 = sub i32 %231, %230
  store i32 %232, ptr %13, align 4
  br label %233

233:                                              ; preds = %226, %217
  %234 = load i32, ptr %13, align 4
  %235 = icmp sle i32 %234, 0
  br i1 %235, label %236, label %237

236:                                              ; preds = %233
  store i32 1, ptr %14, align 4
  br label %269

237:                                              ; preds = %233
  %238 = load ptr, ptr %6, align 8
  %239 = load ptr, ptr %7, align 8
  %240 = load ptr, ptr %8, align 8
  %241 = load i32, ptr %11, align 4
  %242 = load i32, ptr %13, align 4
  %243 = call zeroext i16 @elem_tlv_e(ptr noundef %238, ptr noundef %239, ptr noundef %240, i8 noundef zeroext 117, i32 noundef 18, i32 noundef 7, i32 noundef %241, i32 noundef %242, ptr noundef null)
  %244 = zext i16 %243 to i32
  store i32 %244, ptr %12, align 4
  %245 = icmp ugt i32 %244, 0
  br i1 %245, label %246, label %253

246:                                              ; preds = %237
  %247 = load i32, ptr %12, align 4
  %248 = load i32, ptr %11, align 4
  %249 = add i32 %248, %247
  store i32 %249, ptr %11, align 4
  %250 = load i32, ptr %12, align 4
  %251 = load i32, ptr %13, align 4
  %252 = sub i32 %251, %250
  store i32 %252, ptr %13, align 4
  br label %253

253:                                              ; preds = %246, %237
  %254 = load i32, ptr %13, align 4
  %255 = icmp ugt i32 %254, 0
  br i1 %255, label %256, label %268

256:                                              ; preds = %253
  %257 = load ptr, ptr %7, align 8
  %258 = load ptr, ptr %8, align 8
  %259 = load ptr, ptr %6, align 8
  %260 = load i32, ptr %11, align 4
  %261 = load i32, ptr %13, align 4
  %262 = sub i32 %261, 0
  %263 = call ptr @proto_tree_add_expert(ptr noundef %257, ptr noundef %258, ptr noundef @ei_nas_5gs_extraneous_data, ptr noundef %259, i32 noundef %260, i32 noundef %262)
  %264 = load i32, ptr %13, align 4
  %265 = sub i32 %264, 0
  %266 = load i32, ptr %11, align 4
  %267 = add i32 %266, %265
  store i32 %267, ptr %11, align 4
  br label %268

268:                                              ; preds = %256, %253
  store i32 0, ptr %14, align 4
  br label %269

269:                                              ; preds = %268, %236, %216, %197, %177, %157, %137, %117, %97, %78, %59, %40, %21
  call void @llvm.lifetime.end.p0(i64 4, ptr %13) #11
  call void @llvm.lifetime.end.p0(i64 4, ptr %12) #11
  call void @llvm.lifetime.end.p0(i64 4, ptr %11) #11
  %270 = load i32, ptr %14, align 4
  switch i32 %270, label %272 [
    i32 0, label %271
    i32 1, label %271
  ]

271:                                              ; preds = %269, %269
  ret void

272:                                              ; preds = %269
  unreachable
}