; Function Attrs: null_pointer_is_valid sspstrong uwtable
define internal void @nas_5gs_n1_sm_info_from_ue(ptr noundef %0, ptr noundef %1, ptr noundef initializes((384, 388)) %2, i32 noundef %3, i32 noundef %4) unnamed_addr #0 {
  %6 = getelementptr inbounds nuw i8, ptr %2, i64 384
  store i32 0, ptr %6, align 8
  %7 = icmp slt i32 %4, 1
  br i1 %7, label %81, label %8

8:                                                ; preds = %5
  %9 = tail call zeroext i16 @elem_tv_short(ptr noundef %0, ptr noundef %1, ptr noundef %2, i8 noundef zeroext -112, i32 noundef 18, i32 noundef 10, i32 noundef %3, ptr noundef null)
  %10 = zext i16 %9 to i32
  %11 = sub nsw i32 %4, %10
  %12 = icmp slt i32 %11, 1
  br i1 %12, label %81, label %13

13:                                               ; preds = %8
  %14 = add i32 %3, %10
  %15 = tail call zeroext i16 @elem_tv_short(ptr noundef %0, ptr noundef %1, ptr noundef %2, i8 noundef zeroext -96, i32 noundef 18, i32 noundef 15, i32 noundef %14, ptr noundef null)
  %16 = zext i16 %15 to i32
  %17 = sub nsw i32 %11, %16
  %18 = icmp slt i32 %17, 1
  br i1 %18, label %81, label %19

19:                                               ; preds = %13
  %20 = add i32 %14, %16
  %21 = tail call zeroext i16 @elem_tv(ptr noundef %0, ptr noundef %1, ptr noundef %2, i8 noundef zeroext 85, i32 noundef 18, i32 noundef 8, i32 noundef %20, ptr noundef null)
  %22 = zext i16 %21 to i32
  %23 = sub nsw i32 %17, %22
  %24 = icmp slt i32 %23, 1
  br i1 %24, label %81, label %25

25:                                               ; preds = %19
  %26 = add i32 %20, %22
  %27 = tail call zeroext i16 @elem_tv(ptr noundef %0, ptr noundef %1, ptr noundef %2, i8 noundef zeroext 19, i32 noundef 18, i32 noundef 6, i32 noundef %26, ptr noundef null)
  %28 = zext i16 %27 to i32
  %29 = sub nsw i32 %23, %28
  %30 = icmp slt i32 %29, 1
  br i1 %30, label %81, label %31

31:                                               ; preds = %25
  %32 = add i32 %26, %28
  %33 = tail call zeroext i16 @elem_tlv(ptr noundef %0, ptr noundef %1, ptr noundef %2, i8 noundef zeroext 57, i32 noundef 18, i32 noundef 14, i32 noundef %32, i32 noundef %29, ptr noundef null)
  %34 = zext i16 %33 to i32
  %35 = sub nsw i32 %29, %34
  %36 = icmp slt i32 %35, 1
  br i1 %36, label %81, label %37

37:                                               ; preds = %31
  %38 = add i32 %32, %34
  %39 = tail call zeroext i16 @elem_tlv_e(ptr noundef %0, ptr noundef %1, ptr noundef %2, i8 noundef zeroext 123, i32 noundef 11, i32 noundef 28, i32 noundef %38, i32 noundef %35, ptr noundef null)
  %40 = zext i16 %39 to i32
  %41 = sub nsw i32 %35, %40
  %42 = icmp slt i32 %41, 1
  br i1 %42, label %81, label %43

43:                                               ; preds = %37
  %44 = add i32 %38, %40
  %45 = tail call zeroext i16 @elem_tlv_e(ptr noundef %0, ptr noundef %1, ptr noundef %2, i8 noundef zeroext 120, i32 noundef 16, i32 noundef 3, i32 noundef %44, i32 noundef %41, ptr noundef null)
  %46 = zext i16 %45 to i32
  %47 = sub nsw i32 %41, %46
  %48 = icmp slt i32 %47, 1
  br i1 %48, label %81, label %49

49:                                               ; preds = %43
  %50 = add i32 %44, %46
  %51 = tail call zeroext i16 @elem_tlv_e(ptr noundef %0, ptr noundef %1, ptr noundef %2, i8 noundef zeroext 122, i32 noundef 18, i32 noundef 12, i32 noundef %50, i32 noundef %47, ptr noundef nonnull @.str.1720)
  %52 = zext i16 %51 to i32
  %53 = sub nsw i32 %47, %52
  %54 = icmp slt i32 %53, 1
  br i1 %54, label %81, label %55

55:                                               ; preds = %49
  %56 = add i32 %50, %52
  %57 = tail call zeroext i16 @elem_tlv_e(ptr noundef %0, ptr noundef %1, ptr noundef %2, i8 noundef zeroext 121, i32 noundef 18, i32 noundef 11, i32 noundef %56, i32 noundef %53, ptr noundef nonnull @.str.1672)
  %58 = zext i16 %57 to i32
  %59 = sub nsw i32 %53, %58
  %60 = icmp slt i32 %59, 1
  br i1 %60, label %81, label %61

61:                                               ; preds = %55
  %62 = add i32 %56, %58
  %63 = tail call zeroext i16 @elem_tv(ptr noundef %0, ptr noundef %1, ptr noundef %2, i8 noundef zeroext 89, i32 noundef 18, i32 noundef 1, i32 noundef %62, ptr noundef null)
  %64 = zext i16 %63 to i32
  %65 = sub nsw i32 %59, %64
  %66 = icmp slt i32 %65, 1
  br i1 %66, label %81, label %67

67:                                               ; preds = %61
  %68 = add i32 %62, %64
  %69 = tail call zeroext i16 @elem_tlv(ptr noundef %0, ptr noundef %1, ptr noundef %2, i8 noundef zeroext 40, i32 noundef 18, i32 noundef 0, i32 noundef %68, i32 noundef %65, ptr noundef null)
  %70 = zext i16 %69 to i32
  %71 = sub nsw i32 %65, %70
  %72 = icmp slt i32 %71, 1
  br i1 %72, label %81, label %73

73:                                               ; preds = %67
  %74 = add i32 %68, %70
  %75 = tail call zeroext i16 @elem_tlv_e(ptr noundef %0, ptr noundef %1, ptr noundef %2, i8 noundef zeroext 117, i32 noundef 18, i32 noundef 7, i32 noundef %74, i32 noundef %71, ptr noundef null)
  %76 = zext i16 %75 to i32
  %.not161 = icmp eq i32 %71, %76
  br i1 %.not161, label %81, label %77

77:                                               ; preds = %73
  %78 = sub nsw i32 %71, %76
  %79 = add i32 %74, %76
  %80 = tail call ptr @proto_tree_add_expert(ptr noundef %1, ptr noundef %2, ptr noundef nonnull @ei_nas_5gs_extraneous_data, ptr noundef %0, i32 noundef %79, i32 noundef %78)
  br label %81

81:                                               ; preds = %73, %77, %67, %61, %55, %49, %43, %37, %31, %25, %19, %13, %8, %5
  ret void
}